; Function Attrs: mustprogress nounwind uwtable
define dso_local void @_ZNSt3__18numpunctIwED0Ev(ptr noundef nonnull align 8 dereferenceable(48) initializes((0, 8)) %0) unnamed_addr #0 align 2 {
  store ptr getelementptr inbounds nuw inrange(-16, 64) (i8, ptr @_ZTVNSt3__18numpunctIwEE, i64 16), ptr %0, align 8, !tbaa !23
  %2 = getelementptr inbounds nuw i8, ptr %0, i64 24
  %3 = load i8, ptr %2, align 8
  %4 = and i8 %3, 1
  %.not.i.i = icmp eq i8 %4, 0
  br i1 %.not.i.i, label %_ZNSt3__18numpunctIwED2Ev.exit, label %5

5:                                                ; preds = %1
  %6 = getelementptr inbounds nuw i8, ptr %0, i64 40
  %7 = load ptr, ptr %6, align 8, !tbaa !4
  %8 = load i64, ptr %2, align 8
  %9 = and i64 %8, -2
  tail call void @_ZdlPvm(ptr noundef %7, i64 noundef %9) #46
  br label %_ZNSt3__18numpunctIwED2Ev.exit

_ZNSt3__18numpunctIwED2Ev.exit:                   ; preds = %1, %5
  tail call void @_ZNSt3__114__shared_countD2Ev(ptr noundef nonnull align 8 dereferenceable(48) %0) #45
  tail call void @_ZdlPvm(ptr noundef nonnull %0, i64 noundef 48) #46
  ret void
}